; Function Attrs: mustprogress uwtable
define void @_ZNK8facebook5velox11ArrayVector8validateERKNS0_21VectorValidateOptionsE(ptr noundef nonnull align 8 dereferenceable(152) %this, ptr noundef nonnull align 8 dereferenceable(40) %options) unnamed_addr #0 align 2 {
entry:
  %elements_ = getelementptr inbounds i8, ptr %this, i64 136
  %0 = load ptr, ptr %elements_, align 8
  %length_.i = getelementptr inbounds i8, ptr %0, i64 56
  %1 = load i32, ptr %length_.i, align 8
  tail call void @_ZNK8facebook5velox15ArrayVectorBase23validateArrayVectorBaseERKNS0_21VectorValidateOptionsEi(ptr noundef nonnull align 8 dereferenceable(136) %this, ptr noundef nonnull align 8 dereferenceable(40) %options, i32 noundef %1)
  %2 = load ptr, ptr %elements_, align 8
  %vtable = load ptr, ptr %2, align 8
  %vfn = getelementptr inbounds i8, ptr %vtable, i64 328
  %3 = load ptr, ptr %vfn, align 8
  tail call void %3(ptr noundef nonnull align 8 dereferenceable(99) %2, ptr noundef nonnull align 8 dereferenceable(40) %options)
  ret void
}